; Function Attrs: nofree norecurse nosync nounwind memory(read, inaccessiblemem: none) uwtable
define i32 @If_ManImproveCutCost(ptr noundef readnone captures(none) %0, ptr noundef readonly captures(none) %1) local_unnamed_addr #4 {
  %3 = getelementptr i8, ptr %1, i64 4
  %.val = load i32, ptr %3, align 4, !tbaa !32
  %4 = icmp sgt i32 %.val, 0
  br i1 %4, label %.lr.ph, label %.critedge

.lr.ph:                                           ; preds = %2
  %5 = getelementptr i8, ptr %1, i64 8
  %.val8 = load ptr, ptr %5, align 8, !tbaa !35
  %wide.trip.count = zext nneg i32 %.val to i64
  br label %6

6:                                                ; preds = %.lr.ph, %6
  %indvars.iv = phi i64 [ 0, %.lr.ph ], [ %indvars.iv.next, %6 ]
  %.010 = phi i32 [ 0, %.lr.ph ], [ %spec.select, %6 ]
  %7 = getelementptr inbounds nuw ptr, ptr %.val8, i64 %indvars.iv
  %8 = load ptr, ptr %7, align 8, !tbaa !37
  %9 = getelementptr inbounds nuw i8, ptr %8, i64 12
  %10 = load i32, ptr %9, align 4, !tbaa !40
  %11 = icmp eq i32 %10, 0
  %12 = zext i1 %11 to i32
  %spec.select = add nuw nsw i32 %.010, %12
  %indvars.iv.next = add nuw nsw i64 %indvars.iv, 1
  %exitcond.not = icmp eq i64 %indvars.iv.next, %wide.trip.count
  br i1 %exitcond.not, label %.critedge, label %6, !llvm.loop !69

.critedge:                                        ; preds = %6, %2
  %.0.lcssa = phi i32 [ 0, %2 ], [ %spec.select, %6 ]
  ret i32 %.0.lcssa
}